(lp1
(dp2
Vless
p3
I57
sVyellow
p4
I73
sVshape
p5
I34
sVits
p6
I74
sVto
p7
I42
sVhas
p8
I66
sVbrown
p9
I52
sVcube
p10
I68
sVgreater
p11
I62
sVbig
p12
I12
sVmaterial
p13
I41
sVballs
p14
I49
sVfront
p15
I7
sVcyan
p16
I27
sVgray
p17
I10
sVfewer
p18
I48
sVlarge
p19
I35
sVeither
p20
I82
sVsmall
p21
I63
sVside
p22
I26
sVright
p23
I11
sVare
p24
I20
sVobject;
p25
I75
sVblue
p26
I13
sVwhat
p27
I33
sVpurple
p28
I54
sVcube;
p29
I79
sVbehind
p30
I31
sVdoes
p31
I85
sVsphere;
p32
I15
sVred
p33
I56
sVobjects
p34
I47
sVboth
p35
I81
sVcubes
p36
I19
sVanything
p37
I69
sVof
p38
I8
sVequal
p39
I61
sVspheres
p40
I24
sVshiny
p41
I14
sVor
p42
I83
sVblock
p43
I37
sVthere
p44
I0
sVcolor
p45
I38
sVnumber
p46
I44
sVvisible
p47
I86
sVmatte
p48
I36
sVanother
p49
I77
sVsize
p50
I67
sVball;
p51
I76
sVcylinder;
p52
I32
sVtiny
p53
I58
sVmore
p54
I51
sVthat
p55
I5
sVelse
p56
I70
sVthan
p57
I50
sVmade
p58
I71
sVcylinders
p59
I55
sVmany
p60
I17
sVand
p61
I46
sVcylinder
p62
I29
sVdo
p63
I84
sVis
p64
I1
sVblock;
p65
I80
sVit
p66
I21
sVan
p67
I60
sVsphere
p68
I40
sVas
p69
I53
sVhave
p70
I72
sVin
p71
I6
sVany
p72
I22
sVthing
p73
I4
sVthings
p74
I45
sVsame
p75
I43
sVmetallic
p76
I23
sVrubber
p77
I18
sVhow
p78
I16
sVother
p79
I65
sVball
p80
I39
sVblocks
p81
I64
sVobject
p82
I28
sVon
p83
I25
sVa
I2
sVthing;
p84
I78
sVmetal
p85
I3
sVgreen
p86
I59
sVthe
p87
I9
sVleft
p88
I30
sa(lp89
g44
ag64
aVa
ag85
ag73
ag55
ag71
ag15
ag38
ag87
ag17
ag23
ag12
ag26
ag41
ag32
ag78
ag60
ag77
ag36
ag24
ag66
ag72
ag76
ag40
ag83
ag22
ag16
ag82
ag62
ag88
ag30
ag52
ag27
ag5
ag19
ag48
ag43
ag45
ag80
ag68
ag13
ag7
ag75
ag46
ag74
ag61
ag34
ag18
ag14
ag57
ag54
ag9
ag69
ag28
ag59
ag33
ag3
ag53
ag86
ag67
ag39
ag11
ag21
ag81
ag79
ag8
ag50
ag10
ag37
ag56
ag58
ag70
ag4
ag6
ag25
ag51
ag49
ag84
ag29
ag65
ag35
ag20
ag42
ag63
ag31
ag47
aa.